; ModuleID = '22/1089.c'
source_filename = "22/1089.c"
target datalayout = "e-m:e-p270:32:32-p271:32:32-p272:64:64-i64:64-f80:128-n8:16:32:64-S128"
target triple = "x86_64-pc-linux-gnu"

@.str = private unnamed_addr constant [5 x i8] c"%d%c\00", align 1
@.str.1 = private unnamed_addr constant [3 x i8] c"No\00", align 1
@.str.2 = private unnamed_addr constant [3 x i8] c"%d\00", align 1

; Function Attrs: noinline nounwind uwtable
define dso_local i32 @main() #0 {
  %1 = alloca i32, align 4
  %2 = alloca i32, align 4
  %3 = alloca i32, align 4
  %4 = alloca i32, align 4
  %5 = alloca i32, align 4
  %6 = alloca [301 x i32], align 16
  %7 = alloca i8, align 1
  store i32 0, i32* %1, align 4
  store i32 0, i32* %3, align 4
  store i32 0, i32* %5, align 4
  store i32 0, i32* %4, align 4
  br label %8

8:                                                ; preds = %18, %0
  %9 = load i32, i32* %4, align 4
  %10 = sext i32 %9 to i64
  %11 = getelementptr inbounds [301 x i32], [301 x i32]* %6, i64 0, i64 %10
  %12 = call i32 (i8*, ...) @__isoc99_scanf(i8* getelementptr inbounds ([5 x i8], [5 x i8]* @.str, i64 0, i64 0), i32* %11, i8* %7)
  %13 = load i8, i8* %7, align 1
  %14 = sext i8 %13 to i32
  %15 = icmp ne i32 %14, 44
  br i1 %15, label %16, label %17

16:                                               ; preds = %8
  br label %21

17:                                               ; preds = %8
  br label %18

18:                                               ; preds = %17
  %19 = load i32, i32* %4, align 4
  %20 = add nsw i32 %19, 1
  store i32 %20, i32* %4, align 4
  br label %8

21:                                               ; preds = %16
  %22 = load i32, i32* %4, align 4
  store i32 %22, i32* %2, align 4
  store i32 1, i32* %4, align 4
  br label %23

23:                                               ; preds = %67, %21
  %24 = load i32, i32* %4, align 4
  %25 = load i32, i32* %2, align 4
  %26 = icmp sle i32 %24, %25
  br i1 %26, label %27, label %70

27:                                               ; preds = %23
  %28 = load i32, i32* %4, align 4
  %29 = sext i32 %28 to i64
  %30 = getelementptr inbounds [301 x i32], [301 x i32]* %6, i64 0, i64 %29
  %31 = load i32, i32* %30, align 4
  %32 = load i32, i32* %3, align 4
  %33 = sext i32 %32 to i64
  %34 = getelementptr inbounds [301 x i32], [301 x i32]* %6, i64 0, i64 %33
  %35 = load i32, i32* %34, align 4
  %36 = icmp sgt i32 %31, %35
  br i1 %36, label %37, label %43

37:                                               ; preds = %27
  %38 = load i32, i32* %3, align 4
  %39 = sext i32 %38 to i64
  %40 = getelementptr inbounds [301 x i32], [301 x i32]* %6, i64 0, i64 %39
  %41 = load i32, i32* %40, align 4
  store i32 %41, i32* %5, align 4
  %42 = load i32, i32* %4, align 4
  store i32 %42, i32* %3, align 4
  br label %66

43:                                               ; preds = %27
  %44 = load i32, i32* %4, align 4
  %45 = sext i32 %44 to i64
  %46 = getelementptr inbounds [301 x i32], [301 x i32]* %6, i64 0, i64 %45
  %47 = load i32, i32* %46, align 4
  %48 = load i32, i32* %5, align 4
  %49 = icmp sgt i32 %47, %48
  br i1 %49, label %50, label %65

50:                                               ; preds = %43
  %51 = load i32, i32* %4, align 4
  %52 = sext i32 %51 to i64
  %53 = getelementptr inbounds [301 x i32], [301 x i32]* %6, i64 0, i64 %52
  %54 = load i32, i32* %53, align 4
  %55 = load i32, i32* %3, align 4
  %56 = sext i32 %55 to i64
  %57 = getelementptr inbounds [301 x i32], [301 x i32]* %6, i64 0, i64 %56
  %58 = load i32, i32* %57, align 4
  %59 = icmp slt i32 %54, %58
  br i1 %59, label %60, label %65

60:                                               ; preds = %50
  %61 = load i32, i32* %4, align 4
  %62 = sext i32 %61 to i64
  %63 = getelementptr inbounds [301 x i32], [301 x i32]* %6, i64 0, i64 %62
  %64 = load i32, i32* %63, align 4
  store i32 %64, i32* %5, align 4
  br label %65

65:                                               ; preds = %60, %50, %43
  br label %66

66:                                               ; preds = %65, %37
  br label %67

67:                                               ; preds = %66
  %68 = load i32, i32* %4, align 4
  %69 = add nsw i32 %68, 1
  store i32 %69, i32* %4, align 4
  br label %23

70:                                               ; preds = %23
  %71 = load i32, i32* %3, align 4
  %72 = sext i32 %71 to i64
  %73 = getelementptr inbounds [301 x i32], [301 x i32]* %6, i64 0, i64 %72
  %74 = load i32, i32* %73, align 4
  %75 = load i32, i32* %5, align 4
  %76 = icmp eq i32 %74, %75
  br i1 %76, label %80, label %77

77:                                               ; preds = %70
  %78 = load i32, i32* %5, align 4
  %79 = icmp eq i32 %78, 0
  br i1 %79, label %80, label %82

80:                                               ; preds = %77, %70
  %81 = call i32 (i8*, ...) @printf(i8* getelementptr inbounds ([3 x i8], [3 x i8]* @.str.1, i64 0, i64 0))
  br label %85

82:                                               ; preds = %77
  %83 = load i32, i32* %5, align 4
  %84 = call i32 (i8*, ...) @printf(i8* getelementptr inbounds ([3 x i8], [3 x i8]* @.str.2, i64 0, i64 0), i32 %83)
  br label %85

85:                                               ; preds = %82, %80
  ret i32 0
}

declare dso_local i32 @__isoc99_scanf(i8*, ...) #1

declare dso_local i32 @printf(i8*, ...) #1


!llvm.module.flags = !{!0}
!llvm.ident = !{!1}

!0 = !{i32 1, !"wchar_size", i32 4}
!1 = !{!"clang version 10.0.0-4ubuntu1 "}
